target datalayout = "e-m:e-p270:32:32-p271:32:32-p272:64:64-i64:64-i128:128-f80:128-n8:16:32:64-S128"
target triple = "x86_64-pc-linux-gnu"

%struct.CVodeMemRec = type { double, ptr, ptr, i32, i32, i32, double, double, ptr, i32, ptr, ptr, i32, ptr, i32, i32, double, double, ptr, i32, i32, i32, ptr, ptr, ptr, i32, i32, ptr, ptr, ptr, i32, double, i32, i32, double, ptr, ptr, i32, ptr, ptr, i32, i32, i32, double, ptr, ptr, [13 x ptr], ptr, ptr, ptr, ptr, ptr, [13 x ptr], ptr, ptr, ptr, ptr, [13 x ptr], ptr, ptr, ptr, ptr, ptr, i32, [13 x ptr], ptr, ptr, ptr, ptr, ptr, i32, double, i32, i32, i32, i32, i32, double, double, double, double, double, double, double, double, [14 x double], [6 x double], [13 x double], double, double, double, double, double, double, double, double, double, double, double, i32, ptr, i32, i64, i32, i32, i32, i32, i32, double, double, double, i64, i64, i64, i64, i64, i64, i64, i64, i64, ptr, i64, i64, ptr, i64, i64, i64, i64, i64, i64, i32, i64, i64, i64, i64, i64, i64, double, double, double, ptr, ptr, ptr, ptr, ptr, i32, i32, i64, double, double, double, i32, double, i32, i32, i32, i32, i32, i32, i32, i32, i32, i32, i32, i32, i32, i32, i32, i32, ptr, ptr, ptr, i32, [6 x [4 x double]], i32, i64, ptr, i32, ptr, ptr, double, double, double, ptr, ptr, ptr, double, double, i32, i32, i64, ptr, i32, i32, ptr, i32 }
%struct.CVadjMemRec = type { double, double, i32, i32, double, ptr, i32, ptr, i32, ptr, i32, ptr, i64, ptr, i64, i32, ptr, ptr, ptr, ptr, i32, i32, i32, i32, [13 x ptr], [13 x ptr], [13 x double], ptr, ptr, i64 }
%struct.CVodeBMemRec = type { i32, double, ptr, i32, i32, ptr, ptr, ptr, ptr, ptr, ptr, ptr, ptr, ptr, double, ptr, ptr }

@.str = private unnamed_addr constant [7 x i8] c"CVODEA\00", align 1
@.str.34 = private unnamed_addr constant [7 x i8] c"CVArhs\00", align 1
@.str.35 = private unnamed_addr constant [30 x i8] c"Bad t = %g for interpolation.\00", align 1

; Function Attrs: nounwind uwtable
define internal i32 @CVArhs(double noundef %0, ptr noundef %1, ptr noundef %2, ptr noundef %3) #0 {
  %5 = alloca i32, align 4
  %6 = alloca double, align 8
  %7 = alloca ptr, align 8
  %8 = alloca ptr, align 8
  %9 = alloca ptr, align 8
  %10 = alloca ptr, align 8
  %11 = alloca ptr, align 8
  %12 = alloca ptr, align 8
  %13 = alloca i32, align 4
  %14 = alloca i32, align 4
  %15 = alloca i32, align 4
  store double %0, ptr %6, align 8, !tbaa !71
  store ptr %1, ptr %7, align 8, !tbaa !72
  store ptr %2, ptr %8, align 8, !tbaa !72
  store ptr %3, ptr %9, align 8, !tbaa !3
  call void @llvm.lifetime.start.p0(i64 8, ptr %10) #5
  call void @llvm.lifetime.start.p0(i64 8, ptr %11) #5
  call void @llvm.lifetime.start.p0(i64 8, ptr %12) #5
  call void @llvm.lifetime.start.p0(i64 4, ptr %13) #5
  call void @llvm.lifetime.start.p0(i64 4, ptr %14) #5
  %16 = load ptr, ptr %9, align 8, !tbaa !3
  store ptr %16, ptr %10, align 8, !tbaa !11
  %17 = load ptr, ptr %10, align 8, !tbaa !11
  %18 = getelementptr inbounds nuw %struct.CVodeMemRec, ptr %17, i32 0, i32 194
  %19 = load ptr, ptr %18, align 8, !tbaa !15
  store ptr %19, ptr %11, align 8, !tbaa !13
  %20 = load ptr, ptr %11, align 8, !tbaa !13
  %21 = getelementptr inbounds nuw %struct.CVadjMemRec, ptr %20, i32 0, i32 7
  %22 = load ptr, ptr %21, align 8, !tbaa !47
  store ptr %22, ptr %12, align 8, !tbaa !132
  %23 = load ptr, ptr %11, align 8, !tbaa !13
  %24 = getelementptr inbounds nuw %struct.CVadjMemRec, ptr %23, i32 0, i32 23
  %25 = load i32, ptr %24, align 4, !tbaa !45
  %26 = icmp ne i32 %25, 0
  br i1 %26, label %27, label %40

27:                                               ; preds = %4
  %28 = load ptr, ptr %11, align 8, !tbaa !13
  %29 = getelementptr inbounds nuw %struct.CVadjMemRec, ptr %28, i32 0, i32 19
  %30 = load ptr, ptr %29, align 8, !tbaa !41
  %31 = load ptr, ptr %10, align 8, !tbaa !11
  %32 = load double, ptr %6, align 8, !tbaa !71
  %33 = load ptr, ptr %11, align 8, !tbaa !13
  %34 = getelementptr inbounds nuw %struct.CVadjMemRec, ptr %33, i32 0, i32 27
  %35 = load ptr, ptr %34, align 8, !tbaa !55
  %36 = load ptr, ptr %11, align 8, !tbaa !13
  %37 = getelementptr inbounds nuw %struct.CVadjMemRec, ptr %36, i32 0, i32 28
  %38 = load ptr, ptr %37, align 8, !tbaa !57
  %39 = call i32 %30(ptr noundef %31, double noundef %32, ptr noundef %35, ptr noundef %38)
  store i32 %39, ptr %13, align 4, !tbaa !9
  br label %50

40:                                               ; preds = %4
  %41 = load ptr, ptr %11, align 8, !tbaa !13
  %42 = getelementptr inbounds nuw %struct.CVadjMemRec, ptr %41, i32 0, i32 19
  %43 = load ptr, ptr %42, align 8, !tbaa !41
  %44 = load ptr, ptr %10, align 8, !tbaa !11
  %45 = load double, ptr %6, align 8, !tbaa !71
  %46 = load ptr, ptr %11, align 8, !tbaa !13
  %47 = getelementptr inbounds nuw %struct.CVadjMemRec, ptr %46, i32 0, i32 27
  %48 = load ptr, ptr %47, align 8, !tbaa !55
  %49 = call i32 %43(ptr noundef %44, double noundef %45, ptr noundef %48, ptr noundef null)
  store i32 %49, ptr %13, align 4, !tbaa !9
  br label %50

50:                                               ; preds = %40, %27
  %51 = load i32, ptr %13, align 4, !tbaa !9
  %52 = icmp ne i32 %51, 0
  br i1 %52, label %53, label %56

53:                                               ; preds = %50
  %54 = load ptr, ptr %10, align 8, !tbaa !11
  %55 = load double, ptr %6, align 8, !tbaa !71
  call void (ptr, i32, ptr, ptr, ptr, ...) @cvProcessError(ptr noundef %54, i32 noundef -1, ptr noundef @.str, ptr noundef @.str.34, ptr noundef @.str.35, double noundef %55)
  store i32 -1, ptr %5, align 4
  store i32 1, ptr %15, align 4
  br label %94

56:                                               ; preds = %50
  %57 = load ptr, ptr %12, align 8, !tbaa !132
  %58 = getelementptr inbounds nuw %struct.CVodeBMemRec, ptr %57, i32 0, i32 3
  %59 = load i32, ptr %58, align 8, !tbaa !226
  %60 = icmp ne i32 %59, 0
  br i1 %60, label %61, label %78

61:                                               ; preds = %56
  %62 = load ptr, ptr %12, align 8, !tbaa !132
  %63 = getelementptr inbounds nuw %struct.CVodeBMemRec, ptr %62, i32 0, i32 6
  %64 = load ptr, ptr %63, align 8, !tbaa !220
  %65 = load double, ptr %6, align 8, !tbaa !71
  %66 = load ptr, ptr %11, align 8, !tbaa !13
  %67 = getelementptr inbounds nuw %struct.CVadjMemRec, ptr %66, i32 0, i32 27
  %68 = load ptr, ptr %67, align 8, !tbaa !55
  %69 = load ptr, ptr %11, align 8, !tbaa !13
  %70 = getelementptr inbounds nuw %struct.CVadjMemRec, ptr %69, i32 0, i32 28
  %71 = load ptr, ptr %70, align 8, !tbaa !57
  %72 = load ptr, ptr %7, align 8, !tbaa !72
  %73 = load ptr, ptr %8, align 8, !tbaa !72
  %74 = load ptr, ptr %12, align 8, !tbaa !132
  %75 = getelementptr inbounds nuw %struct.CVodeBMemRec, ptr %74, i32 0, i32 9
  %76 = load ptr, ptr %75, align 8, !tbaa !223
  %77 = call i32 %64(double noundef %65, ptr noundef %68, ptr noundef %71, ptr noundef %72, ptr noundef %73, ptr noundef %76)
  store i32 %77, ptr %14, align 4, !tbaa !9
  br label %92

78:                                               ; preds = %56
  %79 = load ptr, ptr %12, align 8, !tbaa !132
  %80 = getelementptr inbounds nuw %struct.CVodeBMemRec, ptr %79, i32 0, i32 5
  %81 = load ptr, ptr %80, align 8, !tbaa !219
  %82 = load double, ptr %6, align 8, !tbaa !71
  %83 = load ptr, ptr %11, align 8, !tbaa !13
  %84 = getelementptr inbounds nuw %struct.CVadjMemRec, ptr %83, i32 0, i32 27
  %85 = load ptr, ptr %84, align 8, !tbaa !55
  %86 = load ptr, ptr %7, align 8, !tbaa !72
  %87 = load ptr, ptr %8, align 8, !tbaa !72
  %88 = load ptr, ptr %12, align 8, !tbaa !132
  %89 = getelementptr inbounds nuw %struct.CVodeBMemRec, ptr %88, i32 0, i32 9
  %90 = load ptr, ptr %89, align 8, !tbaa !223
  %91 = call i32 %81(double noundef %82, ptr noundef %85, ptr noundef %86, ptr noundef %87, ptr noundef %90)
  store i32 %91, ptr %14, align 4, !tbaa !9
  br label %92

92:                                               ; preds = %78, %61
  %93 = load i32, ptr %14, align 4, !tbaa !9
  store i32 %93, ptr %5, align 4
  store i32 1, ptr %15, align 4
  br label %94

94:                                               ; preds = %92, %53
  call void @llvm.lifetime.end.p0(i64 4, ptr %14) #5
  call void @llvm.lifetime.end.p0(i64 4, ptr %13) #5
  call void @llvm.lifetime.end.p0(i64 8, ptr %12) #5
  call void @llvm.lifetime.end.p0(i64 8, ptr %11) #5
  call void @llvm.lifetime.end.p0(i64 8, ptr %10) #5
  %95 = load i32, ptr %5, align 4
  ret i32 %95
}