; Function Attrs: nounwind uwtable
define internal i32 @CVArhs(double noundef %0, ptr noundef %1, ptr noundef %2, ptr noundef %3) #0 {
  %5 = getelementptr inbounds nuw i8, ptr %3, i64 2192
  %6 = load ptr, ptr %5, align 8, !tbaa !3
  %7 = getelementptr inbounds nuw i8, ptr %6, i64 48
  %8 = load ptr, ptr %7, align 8, !tbaa !41
  %9 = getelementptr inbounds nuw i8, ptr %6, i64 164
  %10 = load i32, ptr %9, align 4, !tbaa !39
  %.not = icmp eq i32 %10, 0
  %11 = getelementptr inbounds nuw i8, ptr %6, i64 144
  %12 = load ptr, ptr %11, align 8, !tbaa !35
  %13 = getelementptr inbounds nuw i8, ptr %6, i64 480
  %14 = load ptr, ptr %13, align 8, !tbaa !49
  br i1 %.not, label %18, label %15

15:                                               ; preds = %4
  %16 = getelementptr inbounds nuw i8, ptr %6, i64 488
  %17 = load ptr, ptr %16, align 8, !tbaa !51
  br label %18

18:                                               ; preds = %4, %15
  %.sink = phi ptr [ %17, %15 ], [ null, %4 ]
  %19 = tail call i32 %12(ptr noundef nonnull %3, double noundef %0, ptr noundef %14, ptr noundef %.sink) #8
  %.not33 = icmp eq i32 %19, 0
  br i1 %.not33, label %21, label %20

20:                                               ; preds = %18
  tail call void (ptr, i32, ptr, ptr, ptr, ...) @cvProcessError(ptr noundef nonnull %3, i32 noundef -1, ptr noundef nonnull @.str, ptr noundef nonnull @.str.34, ptr noundef nonnull @.str.35, double noundef %0) #8
  br label %40

21:                                               ; preds = %18
  %22 = getelementptr inbounds nuw i8, ptr %8, i64 24
  %23 = load i32, ptr %22, align 8, !tbaa !205
  %.not34 = icmp eq i32 %23, 0
  %24 = getelementptr inbounds nuw i8, ptr %6, i64 480
  %25 = load ptr, ptr %24, align 8, !tbaa !49
  br i1 %.not34, label %34, label %26

26:                                               ; preds = %21
  %27 = getelementptr inbounds nuw i8, ptr %8, i64 40
  %28 = load ptr, ptr %27, align 8, !tbaa !208
  %29 = getelementptr inbounds nuw i8, ptr %6, i64 488
  %30 = load ptr, ptr %29, align 8, !tbaa !51
  %31 = getelementptr inbounds nuw i8, ptr %8, i64 64
  %32 = load ptr, ptr %31, align 8, !tbaa !209
  %33 = tail call i32 %28(double noundef %0, ptr noundef %25, ptr noundef %30, ptr noundef %1, ptr noundef %2, ptr noundef %32) #8
  br label %40

34:                                               ; preds = %21
  %35 = getelementptr inbounds nuw i8, ptr %8, i64 32
  %36 = load ptr, ptr %35, align 8, !tbaa !206
  %37 = getelementptr inbounds nuw i8, ptr %8, i64 64
  %38 = load ptr, ptr %37, align 8, !tbaa !209
  %39 = tail call i32 %36(double noundef %0, ptr noundef %25, ptr noundef %1, ptr noundef %2, ptr noundef %38) #8
  br label %40

40:                                               ; preds = %26, %34, %20
  %.032 = phi i32 [ -1, %20 ], [ %33, %26 ], [ %39, %34 ]
  ret i32 %.032
}